target datalayout = "e-m:e-p270:32:32-p271:32:32-p272:64:64-i64:64-i128:128-f80:128-n8:16:32:64-S128"
target triple = "x86_64-pc-linux-gnu"

%struct.hwloc_backend = type { ptr, ptr, i32, ptr, i32, i64, i32, ptr, ptr, ptr }
%struct.hwloc_linux_backend_data_s = type { ptr, i32, i32, ptr, ptr, i32, i32, i32, i32, i32, i32, i32, %struct.utsname, i32, i32, i32 }
%struct.utsname = type { [65 x i8], [65 x i8], [65 x i8], [65 x i8], [65 x i8], [65 x i8] }

@.str.13 = private unnamed_addr constant [13 x i8] c"HWLOC_FSROOT\00", align 1
@.str.14 = private unnamed_addr constant [2 x i8] c"/\00", align 1
@.str.64 = private unnamed_addr constant [24 x i8] c"HWLOC_DUMPED_HWDATA_DIR\00", align 1
@.str.65 = private unnamed_addr constant [26 x i8] c"/usr/local/var/run/hwloc/\00", align 1
@.str.66 = private unnamed_addr constant [25 x i8] c"HWLOC_USE_NUMA_DISTANCES\00", align 1

; Function Attrs: inlinehint nounwind willreturn memory(read) uwtable
define available_externally i32 @atoi(ptr noundef nonnull %0) #10 {
  %2 = alloca ptr, align 8
  store ptr %0, ptr %2, align 8, !tbaa !3
  %3 = load ptr, ptr %2, align 8, !tbaa !3
  %4 = call i64 @strtol(ptr noundef %3, ptr noundef null, i32 noundef 10) #14
  %5 = trunc i64 %4 to i32
  ret i32 %5
}

; Function Attrs: nounwind uwtable
define internal ptr @hwloc_linux_component_instantiate(ptr noundef %0, ptr noundef %1, i32 noundef %2, ptr noundef %3, ptr noundef %4, ptr noundef %5) #0 {
  %7 = alloca ptr, align 8
  %8 = alloca ptr, align 8
  %9 = alloca ptr, align 8
  %10 = alloca i32, align 4
  %11 = alloca ptr, align 8
  %12 = alloca ptr, align 8
  %13 = alloca ptr, align 8
  %14 = alloca ptr, align 8
  %15 = alloca ptr, align 8
  %16 = alloca ptr, align 8
  %17 = alloca i32, align 4
  %18 = alloca ptr, align 8
  %19 = alloca i32, align 4
  %20 = alloca i32, align 4
  %21 = alloca i32, align 4
  store ptr %0, ptr %8, align 8, !tbaa !19
  store ptr %1, ptr %9, align 8, !tbaa !137
  store i32 %2, ptr %10, align 4, !tbaa !10
  store ptr %3, ptr %11, align 8, !tbaa !21
  store ptr %4, ptr %12, align 8, !tbaa !21
  store ptr %5, ptr %13, align 8, !tbaa !21
  call void @llvm.lifetime.start.p0(i64 8, ptr %14) #14
  call void @llvm.lifetime.start.p0(i64 8, ptr %15) #14
  call void @llvm.lifetime.start.p0(i64 8, ptr %16) #14
  call void @llvm.lifetime.start.p0(i64 4, ptr %17) #14
  store i32 -1, ptr %17, align 4, !tbaa !10
  call void @llvm.lifetime.start.p0(i64 8, ptr %18) #14
  %22 = load ptr, ptr %8, align 8, !tbaa !19
  %23 = load ptr, ptr %9, align 8, !tbaa !137
  %24 = call ptr @hwloc_backend_alloc(ptr noundef %22, ptr noundef %23, i64 noundef 464)
  store ptr %24, ptr %14, align 8, !tbaa !139
  %25 = load ptr, ptr %14, align 8, !tbaa !139
  %26 = icmp ne ptr %25, null
  br i1 %26, label %28, label %27

27:                                               ; preds = %6
  br label %160

28:                                               ; preds = %6
  %29 = load ptr, ptr %14, align 8, !tbaa !139
  %30 = getelementptr inbounds nuw i8, ptr %29, i64 80
  store ptr %30, ptr %15, align 8, !tbaa !140
  %31 = load ptr, ptr %14, align 8, !tbaa !139
  %32 = getelementptr inbounds nuw %struct.hwloc_backend, ptr %31, i32 0, i32 8
  store ptr @hwloc_look_linuxfs, ptr %32, align 8, !tbaa !142
  %33 = load ptr, ptr %14, align 8, !tbaa !139
  %34 = getelementptr inbounds nuw %struct.hwloc_backend, ptr %33, i32 0, i32 9
  store ptr @hwloc_linux_backend_get_pci_busid_cpuset, ptr %34, align 8, !tbaa !144
  %35 = load ptr, ptr %14, align 8, !tbaa !139
  %36 = getelementptr inbounds nuw %struct.hwloc_backend, ptr %35, i32 0, i32 7
  store ptr @hwloc_linux_backend_disable, ptr %36, align 8, !tbaa !145
  %37 = load ptr, ptr %15, align 8, !tbaa !140
  %38 = getelementptr inbounds nuw %struct.hwloc_linux_backend_data_s, ptr %37, i32 0, i32 5
  store i32 6, ptr %38, align 8, !tbaa !146
  %39 = load ptr, ptr %15, align 8, !tbaa !140
  %40 = getelementptr inbounds nuw %struct.hwloc_linux_backend_data_s, ptr %39, i32 0, i32 6
  store i32 0, ptr %40, align 4, !tbaa !150
  %41 = load ptr, ptr %15, align 8, !tbaa !140
  %42 = getelementptr inbounds nuw %struct.hwloc_linux_backend_data_s, ptr %41, i32 0, i32 7
  store i32 0, ptr %42, align 8, !tbaa !151
  %43 = load ptr, ptr %15, align 8, !tbaa !140
  %44 = getelementptr inbounds nuw %struct.hwloc_linux_backend_data_s, ptr %43, i32 0, i32 8
  store i32 0, ptr %44, align 4, !tbaa !152
  %45 = load ptr, ptr %15, align 8, !tbaa !140
  %46 = getelementptr inbounds nuw %struct.hwloc_linux_backend_data_s, ptr %45, i32 0, i32 15
  store i32 1, ptr %46, align 4, !tbaa !153
  %47 = load ptr, ptr %15, align 8, !tbaa !140
  %48 = getelementptr inbounds nuw %struct.hwloc_linux_backend_data_s, ptr %47, i32 0, i32 2
  store i32 1, ptr %48, align 4, !tbaa !154
  %49 = load ptr, ptr %15, align 8, !tbaa !140
  %50 = getelementptr inbounds nuw %struct.hwloc_linux_backend_data_s, ptr %49, i32 0, i32 0
  store ptr null, ptr %50, align 8, !tbaa !155
  %51 = call ptr @getenv(ptr noundef @.str.13) #14
  store ptr %51, ptr %16, align 8, !tbaa !3
  %52 = load ptr, ptr %16, align 8, !tbaa !3
  %53 = icmp ne ptr %52, null
  br i1 %53, label %55, label %54

54:                                               ; preds = %28
  store ptr @.str.14, ptr %16, align 8, !tbaa !3
  br label %55

55:                                               ; preds = %54, %28
  %56 = load ptr, ptr %16, align 8, !tbaa !3
  %57 = call i32 @strcmp(ptr noundef %56, ptr noundef @.str.14) #17
  %58 = icmp ne i32 %57, 0
  br i1 %58, label %59, label %91

59:                                               ; preds = %55
  call void @llvm.lifetime.start.p0(i64 4, ptr %19) #14
  %60 = load ptr, ptr %16, align 8, !tbaa !3
  %61 = call i32 (ptr, i32, ...) @open(ptr noundef %60, i32 noundef 65536)
  store i32 %61, ptr %17, align 4, !tbaa !10
  %62 = load i32, ptr %17, align 4, !tbaa !10
  %63 = icmp slt i32 %62, 0
  br i1 %63, label %64, label %65

64:                                               ; preds = %59
  store i32 3, ptr %20, align 4
  br label %88

65:                                               ; preds = %59
  %66 = load ptr, ptr %14, align 8, !tbaa !139
  %67 = getelementptr inbounds nuw %struct.hwloc_backend, ptr %66, i32 0, i32 6
  store i32 0, ptr %67, align 8, !tbaa !156
  %68 = load ptr, ptr %15, align 8, !tbaa !140
  %69 = getelementptr inbounds nuw %struct.hwloc_linux_backend_data_s, ptr %68, i32 0, i32 2
  store i32 0, ptr %69, align 4, !tbaa !154
  %70 = load ptr, ptr %16, align 8, !tbaa !3
  %71 = call noalias ptr @strdup(ptr noundef %70) #14
  %72 = load ptr, ptr %15, align 8, !tbaa !140
  %73 = getelementptr inbounds nuw %struct.hwloc_linux_backend_data_s, ptr %72, i32 0, i32 0
  store ptr %71, ptr %73, align 8, !tbaa !155
  %74 = load i32, ptr %17, align 4, !tbaa !10
  %75 = call i32 (i32, i32, ...) @fcntl(i32 noundef %74, i32 noundef 1, i32 noundef 0)
  store i32 %75, ptr %19, align 4, !tbaa !10
  %76 = load i32, ptr %19, align 4, !tbaa !10
  %77 = icmp eq i32 -1, %76
  br i1 %77, label %84, label %78

78:                                               ; preds = %65
  %79 = load i32, ptr %17, align 4, !tbaa !10
  %80 = load i32, ptr %19, align 4, !tbaa !10
  %81 = or i32 1, %80
  %82 = call i32 (i32, i32, ...) @fcntl(i32 noundef %79, i32 noundef 2, i32 noundef %81)
  %83 = icmp eq i32 -1, %82
  br i1 %83, label %84, label %87

84:                                               ; preds = %78, %65
  %85 = load i32, ptr %17, align 4, !tbaa !10
  %86 = call i32 @close(i32 noundef %85)
  store i32 -1, ptr %17, align 4, !tbaa !10
  store i32 3, ptr %20, align 4
  br label %88

87:                                               ; preds = %78
  store i32 0, ptr %20, align 4
  br label %88

88:                                               ; preds = %84, %64, %87
  call void @llvm.lifetime.end.p0(i64 4, ptr %19) #14
  %89 = load i32, ptr %20, align 4
  switch i32 %89, label %161 [
    i32 0, label %90
    i32 3, label %155
  ]

90:                                               ; preds = %88
  br label %91

91:                                               ; preds = %90, %55
  %92 = load i32, ptr %17, align 4, !tbaa !10
  %93 = load ptr, ptr %15, align 8, !tbaa !140
  %94 = getelementptr inbounds nuw %struct.hwloc_linux_backend_data_s, ptr %93, i32 0, i32 1
  store i32 %92, ptr %94, align 8, !tbaa !157
  %95 = load ptr, ptr %15, align 8, !tbaa !140
  %96 = getelementptr inbounds nuw %struct.hwloc_linux_backend_data_s, ptr %95, i32 0, i32 3
  store ptr null, ptr %96, align 8, !tbaa !158
  %97 = load ptr, ptr %15, align 8, !tbaa !140
  %98 = getelementptr inbounds nuw %struct.hwloc_linux_backend_data_s, ptr %97, i32 0, i32 2
  %99 = load i32, ptr %98, align 4, !tbaa !154
  %100 = icmp ne i32 %99, 0
  br i1 %100, label %101, label %105

101:                                              ; preds = %91
  %102 = call ptr @udev_new()
  %103 = load ptr, ptr %15, align 8, !tbaa !140
  %104 = getelementptr inbounds nuw %struct.hwloc_linux_backend_data_s, ptr %103, i32 0, i32 3
  store ptr %102, ptr %104, align 8, !tbaa !158
  br label %105

105:                                              ; preds = %101, %91
  %106 = call ptr @getenv(ptr noundef @.str.64) #14
  %107 = load ptr, ptr %15, align 8, !tbaa !140
  %108 = getelementptr inbounds nuw %struct.hwloc_linux_backend_data_s, ptr %107, i32 0, i32 4
  store ptr %106, ptr %108, align 8, !tbaa !159
  %109 = load ptr, ptr %15, align 8, !tbaa !140
  %110 = getelementptr inbounds nuw %struct.hwloc_linux_backend_data_s, ptr %109, i32 0, i32 4
  %111 = load ptr, ptr %110, align 8, !tbaa !159
  %112 = icmp ne ptr %111, null
  br i1 %112, label %116, label %113

113:                                              ; preds = %105
  %114 = load ptr, ptr %15, align 8, !tbaa !140
  %115 = getelementptr inbounds nuw %struct.hwloc_linux_backend_data_s, ptr %114, i32 0, i32 4
  store ptr @.str.65, ptr %115, align 8, !tbaa !159
  br label %116

116:                                              ; preds = %113, %105
  %117 = load ptr, ptr %15, align 8, !tbaa !140
  %118 = getelementptr inbounds nuw %struct.hwloc_linux_backend_data_s, ptr %117, i32 0, i32 9
  store i32 1, ptr %118, align 8, !tbaa !160
  %119 = load ptr, ptr %15, align 8, !tbaa !140
  %120 = getelementptr inbounds nuw %struct.hwloc_linux_backend_data_s, ptr %119, i32 0, i32 10
  store i32 1, ptr %120, align 4, !tbaa !161
  %121 = load ptr, ptr %15, align 8, !tbaa !140
  %122 = getelementptr inbounds nuw %struct.hwloc_linux_backend_data_s, ptr %121, i32 0, i32 11
  store i32 1, ptr %122, align 8, !tbaa !162
  %123 = call ptr @getenv(ptr noundef @.str.66) #14
  store ptr %123, ptr %18, align 8, !tbaa !3
  %124 = load ptr, ptr %18, align 8, !tbaa !3
  %125 = icmp ne ptr %124, null
  br i1 %125, label %126, label %153

126:                                              ; preds = %116
  call void @llvm.lifetime.start.p0(i64 4, ptr %21) #14
  %127 = load ptr, ptr %18, align 8, !tbaa !3
  %128 = call i32 @atoi(ptr noundef %127) #17
  store i32 %128, ptr %21, align 4, !tbaa !10
  %129 = load i32, ptr %21, align 4, !tbaa !10
  %130 = and i32 %129, 3
  %131 = icmp ne i32 %130, 0
  %132 = xor i1 %131, true
  %133 = xor i1 %132, true
  %134 = zext i1 %133 to i32
  %135 = load ptr, ptr %15, align 8, !tbaa !140
  %136 = getelementptr inbounds nuw %struct.hwloc_linux_backend_data_s, ptr %135, i32 0, i32 9
  store i32 %134, ptr %136, align 8, !tbaa !160
  %137 = load i32, ptr %21, align 4, !tbaa !10
  %138 = and i32 %137, 2
  %139 = icmp ne i32 %138, 0
  %140 = xor i1 %139, true
  %141 = xor i1 %140, true
  %142 = zext i1 %141 to i32
  %143 = load ptr, ptr %15, align 8, !tbaa !140
  %144 = getelementptr inbounds nuw %struct.hwloc_linux_backend_data_s, ptr %143, i32 0, i32 10
  store i32 %142, ptr %144, align 4, !tbaa !161
  %145 = load i32, ptr %21, align 4, !tbaa !10
  %146 = and i32 %145, 4
  %147 = icmp ne i32 %146, 0
  %148 = xor i1 %147, true
  %149 = xor i1 %148, true
  %150 = zext i1 %149 to i32
  %151 = load ptr, ptr %15, align 8, !tbaa !140
  %152 = getelementptr inbounds nuw %struct.hwloc_linux_backend_data_s, ptr %151, i32 0, i32 11
  store i32 %150, ptr %152, align 8, !tbaa !162
  call void @llvm.lifetime.end.p0(i64 4, ptr %21) #14
  br label %153

153:                                              ; preds = %126, %116
  %154 = load ptr, ptr %14, align 8, !tbaa !139
  store ptr %154, ptr %7, align 8
  store i32 1, ptr %20, align 4
  br label %161

155:                                              ; preds = %88
  %156 = load ptr, ptr %15, align 8, !tbaa !140
  %157 = getelementptr inbounds nuw %struct.hwloc_linux_backend_data_s, ptr %156, i32 0, i32 0
  %158 = load ptr, ptr %157, align 8, !tbaa !155
  call void @free(ptr noundef %158) #14
  %159 = load ptr, ptr %14, align 8, !tbaa !139
  call void @free(ptr noundef %159) #14
  br label %160

160:                                              ; preds = %155, %27
  store ptr null, ptr %7, align 8
  store i32 1, ptr %20, align 4
  br label %161

161:                                              ; preds = %160, %153, %88
  call void @llvm.lifetime.end.p0(i64 8, ptr %18) #14
  call void @llvm.lifetime.end.p0(i64 4, ptr %17) #14
  call void @llvm.lifetime.end.p0(i64 8, ptr %16) #14
  call void @llvm.lifetime.end.p0(i64 8, ptr %15) #14
  call void @llvm.lifetime.end.p0(i64 8, ptr %14) #14
  %162 = load ptr, ptr %7, align 8
  ret ptr %162
}