; Function Attrs: nounwind uwtable
define internal ptr @hwloc_linux_component_instantiate(ptr noundef %0, ptr noundef %1, i32 %2, ptr readnone captures(none) %3, ptr readnone captures(none) %4, ptr readnone captures(none) %5) #0 {
  %7 = tail call ptr @hwloc_backend_alloc(ptr noundef %0, ptr noundef %1, i64 noundef 464) #27
  %.not = icmp eq ptr %7, null
  br i1 %.not, label %62, label %sub_0

sub_0:                                            ; preds = %6
  %8 = getelementptr inbounds nuw i8, ptr %7, i64 80
  %9 = getelementptr inbounds nuw i8, ptr %7, i64 64
  store ptr @hwloc_look_linuxfs, ptr %9, align 8, !tbaa !111
  %10 = getelementptr inbounds nuw i8, ptr %7, i64 72
  store ptr @hwloc_linux_backend_get_pci_busid_cpuset, ptr %10, align 8, !tbaa !115
  %11 = getelementptr inbounds nuw i8, ptr %7, i64 56
  store ptr @hwloc_linux_backend_disable, ptr %11, align 8, !tbaa !116
  %12 = getelementptr inbounds nuw i8, ptr %7, i64 112
  store i32 6, ptr %12, align 8, !tbaa !117
  %13 = getelementptr inbounds nuw i8, ptr %7, i64 116
  store i32 0, ptr %13, align 4, !tbaa !121
  %14 = getelementptr inbounds nuw i8, ptr %7, i64 120
  store i32 0, ptr %14, align 8, !tbaa !122
  %15 = getelementptr inbounds nuw i8, ptr %7, i64 124
  store i32 0, ptr %15, align 4, !tbaa !123
  %16 = getelementptr inbounds nuw i8, ptr %7, i64 540
  store i32 1, ptr %16, align 4, !tbaa !124
  %17 = getelementptr inbounds nuw i8, ptr %7, i64 92
  store i32 1, ptr %17, align 4, !tbaa !125
  store ptr null, ptr %8, align 8, !tbaa !126
  %18 = tail call ptr @getenv(ptr noundef nonnull @.str.13) #27
  %.not57 = icmp eq ptr %18, null
  %spec.store.select = select i1 %.not57, ptr @.str.14, ptr %18
  %19 = load i8, ptr %spec.store.select, align 1
  %.not65 = icmp eq i8 %19, 47
  br i1 %.not65, label %.tail, label %.tail.thread

.tail:                                            ; preds = %sub_0
  %20 = getelementptr inbounds nuw i8, ptr %spec.store.select, i64 1
  %21 = load i8, ptr %20, align 1
  %22 = icmp eq i8 %21, 0
  br i1 %22, label %.thread, label %.tail.thread

.thread:                                          ; preds = %.tail
  %23 = getelementptr inbounds nuw i8, ptr %7, i64 88
  store i32 -1, ptr %23, align 8, !tbaa !127
  %24 = getelementptr inbounds nuw i8, ptr %7, i64 96
  store ptr null, ptr %24, align 8, !tbaa !128
  br label %42

.tail.thread:                                     ; preds = %sub_0, %.tail
  %25 = tail call i32 (ptr, i32, ...) @open(ptr noundef nonnull %spec.store.select, i32 noundef 65536) #27
  %26 = icmp slt i32 %25, 0
  br i1 %26, label %60, label %27

27:                                               ; preds = %.tail.thread
  %28 = getelementptr inbounds nuw i8, ptr %7, i64 48
  store i32 0, ptr %28, align 8, !tbaa !129
  store i32 0, ptr %17, align 4, !tbaa !125
  %29 = tail call noalias ptr @strdup(ptr noundef nonnull %spec.store.select) #27
  store ptr %29, ptr %8, align 8, !tbaa !126
  %30 = tail call i32 (i32, i32, ...) @fcntl(i32 noundef %25, i32 noundef 1, i32 noundef 0) #27
  %31 = icmp eq i32 %30, -1
  br i1 %31, label %36, label %32

32:                                               ; preds = %27
  %33 = or i32 %30, 1
  %34 = tail call i32 (i32, i32, ...) @fcntl(i32 noundef %25, i32 noundef 2, i32 noundef %33) #27
  %35 = icmp eq i32 %34, -1
  br i1 %35, label %36, label %38

36:                                               ; preds = %32, %27
  %37 = tail call i32 @close(i32 noundef %25) #27
  br label %60

38:                                               ; preds = %32
  %.pre = load i32, ptr %17, align 4, !tbaa !125
  %39 = icmp eq i32 %.pre, 0
  %40 = getelementptr inbounds nuw i8, ptr %7, i64 88
  store i32 %25, ptr %40, align 8, !tbaa !127
  %41 = getelementptr inbounds nuw i8, ptr %7, i64 96
  store ptr null, ptr %41, align 8, !tbaa !128
  br i1 %39, label %45, label %42

42:                                               ; preds = %.thread, %38
  %43 = phi ptr [ %24, %.thread ], [ %41, %38 ]
  %44 = tail call ptr @udev_new() #27
  store ptr %44, ptr %43, align 8, !tbaa !128
  br label %45

45:                                               ; preds = %42, %38
  %46 = tail call ptr @getenv(ptr noundef nonnull @.str.64) #27
  %47 = getelementptr inbounds nuw i8, ptr %7, i64 104
  %.not60 = icmp eq ptr %46, null
  %spec.select = select i1 %.not60, ptr @.str.65, ptr %46
  store ptr %spec.select, ptr %47, align 8, !tbaa !130
  %48 = getelementptr inbounds nuw i8, ptr %7, i64 128
  store i32 1, ptr %48, align 8, !tbaa !131
  %49 = getelementptr inbounds nuw i8, ptr %7, i64 132
  store i32 1, ptr %49, align 4, !tbaa !132
  %50 = getelementptr inbounds nuw i8, ptr %7, i64 136
  store i32 1, ptr %50, align 8, !tbaa !133
  %51 = tail call ptr @getenv(ptr noundef nonnull @.str.66) #27
  %.not61 = icmp eq ptr %51, null
  br i1 %.not61, label %62, label %52

52:                                               ; preds = %45
  %53 = tail call i64 @strtol(ptr noundef nonnull captures(none) %51, ptr noundef null, i32 noundef 10) #27
  %54 = trunc i64 %53 to i32
  %55 = and i32 %54, 3
  %56 = icmp ne i32 %55, 0
  %57 = zext i1 %56 to i32
  store i32 %57, ptr %48, align 8, !tbaa !131
  %58 = lshr i32 %54, 1
  %.lobit = and i32 %58, 1
  store i32 %.lobit, ptr %49, align 4, !tbaa !132
  %59 = lshr i32 %54, 2
  %.lobit62 = and i32 %59, 1
  store i32 %.lobit62, ptr %50, align 8, !tbaa !133
  br label %62

60:                                               ; preds = %36, %.tail.thread
  %61 = load ptr, ptr %8, align 8, !tbaa !126
  tail call void @free(ptr noundef %61) #27
  tail call void @free(ptr noundef nonnull %7) #27
  br label %62

62:                                               ; preds = %60, %6, %45, %52
  %.0 = phi ptr [ %7, %52 ], [ %7, %45 ], [ null, %6 ], [ null, %60 ]
  ret ptr %.0
}